target datalayout = "e-m:e-p270:32:32-p271:32:32-p272:64:64-i64:64-i128:128-f80:128-n8:16:32:64-S128"
target triple = "x86_64-pc-linux-gnu"

%struct.jpeg_decompress_struct = type { ptr, ptr, ptr, ptr, i32, i32, ptr, i32, i32, i32, i32, i32, i32, i32, double, i32, i32, i32, i32, i32, i32, i32, i32, i32, i32, i32, i32, i32, i32, i32, i32, i32, i32, ptr, i32, i32, i32, i32, i32, ptr, [4 x ptr], [4 x ptr], [4 x ptr], i32, ptr, i32, i32, [16 x i8], [16 x i8], [16 x i8], i32, i32, i8, i8, i8, i16, i16, i32, i8, i32, ptr, i32, i32, i32, i32, ptr, i32, [4 x ptr], i32, i32, i32, [10 x i32], i32, i32, i32, i32, i32, ptr, ptr, ptr, ptr, ptr, ptr, ptr, ptr, ptr, ptr, ptr }
%struct.jpeg_error_mgr = type { ptr, ptr, ptr, ptr, ptr, i32, %union.anon, i32, i64, ptr, i32, ptr, i32, i32 }
%union.anon = type { [8 x i32], [48 x i8] }

; Function Attrs: nounwind uwtable
define i32 @jpeg_resync_to_restart(ptr noundef %0, i32 noundef %1) #0 {
  %3 = alloca i32, align 4
  %4 = alloca ptr, align 8
  %5 = alloca i32, align 4
  %6 = alloca i32, align 4
  %7 = alloca i32, align 4
  %8 = alloca i32, align 4
  store ptr %0, ptr %4, align 8, !tbaa !3
  store i32 %1, ptr %5, align 4, !tbaa !8
  call void @llvm.lifetime.start.p0(i64 4, ptr %6) #5
  %9 = load ptr, ptr %4, align 8, !tbaa !3
  %10 = getelementptr inbounds nuw %struct.jpeg_decompress_struct, ptr %9, i32 0, i32 76
  %11 = load i32, ptr %10, align 4, !tbaa !10
  store i32 %11, ptr %6, align 4, !tbaa !8
  call void @llvm.lifetime.start.p0(i64 4, ptr %7) #5
  store i32 1, ptr %7, align 4, !tbaa !8
  %12 = load ptr, ptr %4, align 8, !tbaa !3
  %13 = getelementptr inbounds nuw %struct.jpeg_decompress_struct, ptr %12, i32 0, i32 0
  %14 = load ptr, ptr %13, align 8, !tbaa !33
  %15 = getelementptr inbounds nuw %struct.jpeg_error_mgr, ptr %14, i32 0, i32 5
  store i32 121, ptr %15, align 8, !tbaa !34
  %16 = load i32, ptr %6, align 4, !tbaa !8
  %17 = load ptr, ptr %4, align 8, !tbaa !3
  %18 = getelementptr inbounds nuw %struct.jpeg_decompress_struct, ptr %17, i32 0, i32 0
  %19 = load ptr, ptr %18, align 8, !tbaa !33
  %20 = getelementptr inbounds nuw %struct.jpeg_error_mgr, ptr %19, i32 0, i32 6
  %21 = getelementptr inbounds [8 x i32], ptr %20, i64 0, i64 0
  store i32 %16, ptr %21, align 4, !tbaa !37
  %22 = load i32, ptr %5, align 4, !tbaa !8
  %23 = load ptr, ptr %4, align 8, !tbaa !3
  %24 = getelementptr inbounds nuw %struct.jpeg_decompress_struct, ptr %23, i32 0, i32 0
  %25 = load ptr, ptr %24, align 8, !tbaa !33
  %26 = getelementptr inbounds nuw %struct.jpeg_error_mgr, ptr %25, i32 0, i32 6
  %27 = getelementptr inbounds [8 x i32], ptr %26, i64 0, i64 1
  store i32 %22, ptr %27, align 4, !tbaa !37
  %28 = load ptr, ptr %4, align 8, !tbaa !3
  %29 = getelementptr inbounds nuw %struct.jpeg_decompress_struct, ptr %28, i32 0, i32 0
  %30 = load ptr, ptr %29, align 8, !tbaa !33
  %31 = getelementptr inbounds nuw %struct.jpeg_error_mgr, ptr %30, i32 0, i32 1
  %32 = load ptr, ptr %31, align 8, !tbaa !38
  %33 = load ptr, ptr %4, align 8, !tbaa !3
  call void %32(ptr noundef %33, i32 noundef -1)
  br label %34

34:                                               ; preds = %116, %2
  %35 = load i32, ptr %6, align 4, !tbaa !8
  %36 = icmp slt i32 %35, 192
  br i1 %36, label %37, label %38

37:                                               ; preds = %34
  store i32 2, ptr %7, align 4, !tbaa !8
  br label %79

38:                                               ; preds = %34
  %39 = load i32, ptr %6, align 4, !tbaa !8
  %40 = icmp slt i32 %39, 208
  br i1 %40, label %44, label %41

41:                                               ; preds = %38
  %42 = load i32, ptr %6, align 4, !tbaa !8
  %43 = icmp sgt i32 %42, 215
  br i1 %43, label %44, label %45

44:                                               ; preds = %41, %38
  store i32 3, ptr %7, align 4, !tbaa !8
  br label %78

45:                                               ; preds = %41
  %46 = load i32, ptr %6, align 4, !tbaa !8
  %47 = load i32, ptr %5, align 4, !tbaa !8
  %48 = add nsw i32 %47, 1
  %49 = and i32 %48, 7
  %50 = add nsw i32 208, %49
  %51 = icmp eq i32 %46, %50
  br i1 %51, label %59, label %52

52:                                               ; preds = %45
  %53 = load i32, ptr %6, align 4, !tbaa !8
  %54 = load i32, ptr %5, align 4, !tbaa !8
  %55 = add nsw i32 %54, 2
  %56 = and i32 %55, 7
  %57 = add nsw i32 208, %56
  %58 = icmp eq i32 %53, %57
  br i1 %58, label %59, label %60

59:                                               ; preds = %52, %45
  store i32 3, ptr %7, align 4, !tbaa !8
  br label %77

60:                                               ; preds = %52
  %61 = load i32, ptr %6, align 4, !tbaa !8
  %62 = load i32, ptr %5, align 4, !tbaa !8
  %63 = sub nsw i32 %62, 1
  %64 = and i32 %63, 7
  %65 = add nsw i32 208, %64
  %66 = icmp eq i32 %61, %65
  br i1 %66, label %74, label %67

67:                                               ; preds = %60
  %68 = load i32, ptr %6, align 4, !tbaa !8
  %69 = load i32, ptr %5, align 4, !tbaa !8
  %70 = sub nsw i32 %69, 2
  %71 = and i32 %70, 7
  %72 = add nsw i32 208, %71
  %73 = icmp eq i32 %68, %72
  br i1 %73, label %74, label %75

74:                                               ; preds = %67, %60
  store i32 2, ptr %7, align 4, !tbaa !8
  br label %76

75:                                               ; preds = %67
  store i32 1, ptr %7, align 4, !tbaa !8
  br label %76

76:                                               ; preds = %75, %74
  br label %77

77:                                               ; preds = %76, %59
  br label %78

78:                                               ; preds = %77, %44
  br label %79

79:                                               ; preds = %78, %37
  %80 = load ptr, ptr %4, align 8, !tbaa !3
  %81 = getelementptr inbounds nuw %struct.jpeg_decompress_struct, ptr %80, i32 0, i32 0
  %82 = load ptr, ptr %81, align 8, !tbaa !33
  %83 = getelementptr inbounds nuw %struct.jpeg_error_mgr, ptr %82, i32 0, i32 5
  store i32 97, ptr %83, align 8, !tbaa !34
  %84 = load i32, ptr %6, align 4, !tbaa !8
  %85 = load ptr, ptr %4, align 8, !tbaa !3
  %86 = getelementptr inbounds nuw %struct.jpeg_decompress_struct, ptr %85, i32 0, i32 0
  %87 = load ptr, ptr %86, align 8, !tbaa !33
  %88 = getelementptr inbounds nuw %struct.jpeg_error_mgr, ptr %87, i32 0, i32 6
  %89 = getelementptr inbounds [8 x i32], ptr %88, i64 0, i64 0
  store i32 %84, ptr %89, align 4, !tbaa !37
  %90 = load i32, ptr %7, align 4, !tbaa !8
  %91 = load ptr, ptr %4, align 8, !tbaa !3
  %92 = getelementptr inbounds nuw %struct.jpeg_decompress_struct, ptr %91, i32 0, i32 0
  %93 = load ptr, ptr %92, align 8, !tbaa !33
  %94 = getelementptr inbounds nuw %struct.jpeg_error_mgr, ptr %93, i32 0, i32 6
  %95 = getelementptr inbounds [8 x i32], ptr %94, i64 0, i64 1
  store i32 %90, ptr %95, align 4, !tbaa !37
  %96 = load ptr, ptr %4, align 8, !tbaa !3
  %97 = getelementptr inbounds nuw %struct.jpeg_decompress_struct, ptr %96, i32 0, i32 0
  %98 = load ptr, ptr %97, align 8, !tbaa !33
  %99 = getelementptr inbounds nuw %struct.jpeg_error_mgr, ptr %98, i32 0, i32 1
  %100 = load ptr, ptr %99, align 8, !tbaa !38
  %101 = load ptr, ptr %4, align 8, !tbaa !3
  call void %100(ptr noundef %101, i32 noundef 4)
  %102 = load i32, ptr %7, align 4, !tbaa !8
  switch i32 %102, label %116 [
    i32 1, label %103
    i32 2, label %106
    i32 3, label %115
  ]

103:                                              ; preds = %79
  %104 = load ptr, ptr %4, align 8, !tbaa !3
  %105 = getelementptr inbounds nuw %struct.jpeg_decompress_struct, ptr %104, i32 0, i32 76
  store i32 0, ptr %105, align 4, !tbaa !10
  store i32 1, ptr %3, align 4
  store i32 1, ptr %8, align 4
  br label %117

106:                                              ; preds = %79
  %107 = load ptr, ptr %4, align 8, !tbaa !3
  %108 = call i32 @next_marker(ptr noundef %107)
  %109 = icmp ne i32 %108, 0
  br i1 %109, label %111, label %110

110:                                              ; preds = %106
  store i32 0, ptr %3, align 4
  store i32 1, ptr %8, align 4
  br label %117

111:                                              ; preds = %106
  %112 = load ptr, ptr %4, align 8, !tbaa !3
  %113 = getelementptr inbounds nuw %struct.jpeg_decompress_struct, ptr %112, i32 0, i32 76
  %114 = load i32, ptr %113, align 4, !tbaa !10
  store i32 %114, ptr %6, align 4, !tbaa !8
  br label %116

115:                                              ; preds = %79
  store i32 1, ptr %3, align 4
  store i32 1, ptr %8, align 4
  br label %117

116:                                              ; preds = %79, %111
  br label %34

117:                                              ; preds = %115, %110, %103
  call void @llvm.lifetime.end.p0(i64 4, ptr %7) #5
  call void @llvm.lifetime.end.p0(i64 4, ptr %6) #5
  %118 = load i32, ptr %3, align 4
  ret i32 %118
}